target datalayout = "e-m:e-p270:32:32-p271:32:32-p272:64:64-i64:64-i128:128-f80:128-n8:16:32:64-S128"
target triple = "x86_64-pc-linux-gnu"

%struct.SlruSharedData = type { i32, ptr, ptr, ptr, ptr, ptr, ptr, ptr, ptr, ptr, i32, %struct.pg_atomic_uint64, i32 }
%struct.pg_atomic_uint64 = type { i64 }
%union.LWLockPadded = type { %struct.LWLock, [112 x i8] }
%struct.LWLock = type { i16, %struct.pg_atomic_uint32, %struct.proclist_head }
%struct.pg_atomic_uint32 = type { i32 }
%struct.proclist_head = type { i32, i32 }
%struct.SlruCtlData = type { ptr, i16, i8, i32, ptr, [64 x i8] }
%struct.SlruWriteAllData = type { i32, [16 x i32], [16 x i64] }

@slru_errcause = internal global i32 0, align 4
@slru_errno = internal global i32 0, align 4

; Function Attrs: nounwind uwtable
define dso_local void @SimpleLruWriteAll(ptr noundef %0, i1 noundef zeroext %1) #0 {
  %3 = alloca ptr, align 8
  %4 = alloca i8, align 1
  %5 = alloca ptr, align 8
  %6 = alloca %struct.SlruWriteAllData, align 8
  %7 = alloca i64, align 8
  %8 = alloca i32, align 4
  %9 = alloca i8, align 1
  %10 = alloca i32, align 4
  %11 = alloca i32, align 4
  %12 = alloca i32, align 4
  %13 = alloca i32, align 4
  store ptr %0, ptr %3, align 8
  %14 = zext i1 %1 to i8
  store i8 %14, ptr %4, align 1
  call void @llvm.lifetime.start.p0(i64 8, ptr %5) #9
  %15 = load ptr, ptr %3, align 8
  %16 = getelementptr inbounds nuw %struct.SlruCtlData, ptr %15, i32 0, i32 0
  %17 = load ptr, ptr %16, align 8
  store ptr %17, ptr %5, align 8
  call void @llvm.lifetime.start.p0(i64 200, ptr %6) #9
  call void @llvm.lifetime.start.p0(i64 8, ptr %7) #9
  store i64 0, ptr %7, align 8
  call void @llvm.lifetime.start.p0(i64 4, ptr %8) #9
  store i32 0, ptr %8, align 4
  call void @llvm.lifetime.start.p0(i64 1, ptr %9) #9
  %18 = load ptr, ptr %5, align 8
  %19 = getelementptr inbounds nuw %struct.SlruSharedData, ptr %18, i32 0, i32 12
  %20 = load i32, ptr %19, align 8
  call void @pgstat_count_slru_flush(i32 noundef %20)
  %21 = getelementptr inbounds nuw %struct.SlruWriteAllData, ptr %6, i32 0, i32 0
  store i32 0, ptr %21, align 8
  %22 = load ptr, ptr %5, align 8
  %23 = getelementptr inbounds nuw %struct.SlruSharedData, ptr %22, i32 0, i32 7
  %24 = load ptr, ptr %23, align 8
  %25 = load i32, ptr %8, align 4
  %26 = sext i32 %25 to i64
  %27 = getelementptr inbounds %union.LWLockPadded, ptr %24, i64 %26
  %28 = call zeroext i1 @LWLockAcquire(ptr noundef %27, i32 noundef 0)
  call void @llvm.lifetime.start.p0(i64 4, ptr %10) #9
  store i32 0, ptr %10, align 4
  br label %29

29:                                               ; preds = %73, %2
  %30 = load i32, ptr %10, align 4
  %31 = load ptr, ptr %5, align 8
  %32 = getelementptr inbounds nuw %struct.SlruSharedData, ptr %31, i32 0, i32 0
  %33 = load i32, ptr %32, align 8
  %34 = icmp slt i32 %30, %33
  br i1 %34, label %36, label %35

35:                                               ; preds = %29
  store i32 2, ptr %11, align 4
  call void @llvm.lifetime.end.p0(i64 4, ptr %10) #9
  br label %76

36:                                               ; preds = %29
  call void @llvm.lifetime.start.p0(i64 4, ptr %12) #9
  %37 = load i32, ptr %10, align 4
  %38 = ashr i32 %37, 4
  store i32 %38, ptr %12, align 4
  %39 = load i32, ptr %12, align 4
  %40 = load i32, ptr %8, align 4
  %41 = icmp ne i32 %39, %40
  br i1 %41, label %42, label %57

42:                                               ; preds = %36
  %43 = load ptr, ptr %5, align 8
  %44 = getelementptr inbounds nuw %struct.SlruSharedData, ptr %43, i32 0, i32 7
  %45 = load ptr, ptr %44, align 8
  %46 = load i32, ptr %8, align 4
  %47 = sext i32 %46 to i64
  %48 = getelementptr inbounds %union.LWLockPadded, ptr %45, i64 %47
  call void @LWLockRelease(ptr noundef %48)
  %49 = load ptr, ptr %5, align 8
  %50 = getelementptr inbounds nuw %struct.SlruSharedData, ptr %49, i32 0, i32 7
  %51 = load ptr, ptr %50, align 8
  %52 = load i32, ptr %12, align 4
  %53 = sext i32 %52 to i64
  %54 = getelementptr inbounds %union.LWLockPadded, ptr %51, i64 %53
  %55 = call zeroext i1 @LWLockAcquire(ptr noundef %54, i32 noundef 0)
  %56 = load i32, ptr %12, align 4
  store i32 %56, ptr %8, align 4
  br label %57

57:                                               ; preds = %42, %36
  %58 = load ptr, ptr %5, align 8
  %59 = getelementptr inbounds nuw %struct.SlruSharedData, ptr %58, i32 0, i32 2
  %60 = load ptr, ptr %59, align 8
  %61 = load i32, ptr %10, align 4
  %62 = sext i32 %61 to i64
  %63 = getelementptr inbounds i32, ptr %60, i64 %62
  %64 = load i32, ptr %63, align 4
  %65 = icmp eq i32 %64, 0
  br i1 %65, label %66, label %67

66:                                               ; preds = %57
  store i32 4, ptr %11, align 4
  br label %70

67:                                               ; preds = %57
  %68 = load ptr, ptr %3, align 8
  %69 = load i32, ptr %10, align 4
  call void @SlruInternalWritePage(ptr noundef %68, i32 noundef %69, ptr noundef %6)
  store i32 0, ptr %11, align 4
  br label %70

70:                                               ; preds = %67, %66
  call void @llvm.lifetime.end.p0(i64 4, ptr %12) #9
  %71 = load i32, ptr %11, align 4
  switch i32 %71, label %126 [
    i32 0, label %72
    i32 4, label %73
  ]

72:                                               ; preds = %70
  br label %73

73:                                               ; preds = %72, %70
  %74 = load i32, ptr %10, align 4
  %75 = add i32 %74, 1
  store i32 %75, ptr %10, align 4
  br label %29, !llvm.loop !17

76:                                               ; preds = %35
  %77 = load ptr, ptr %5, align 8
  %78 = getelementptr inbounds nuw %struct.SlruSharedData, ptr %77, i32 0, i32 7
  %79 = load ptr, ptr %78, align 8
  %80 = load i32, ptr %8, align 4
  %81 = sext i32 %80 to i64
  %82 = getelementptr inbounds %union.LWLockPadded, ptr %79, i64 %81
  call void @LWLockRelease(ptr noundef %82)
  store i8 1, ptr %9, align 1
  call void @llvm.lifetime.start.p0(i64 4, ptr %13) #9
  store i32 0, ptr %13, align 4
  br label %83

83:                                               ; preds = %107, %76
  %84 = load i32, ptr %13, align 4
  %85 = getelementptr inbounds nuw %struct.SlruWriteAllData, ptr %6, i32 0, i32 0
  %86 = load i32, ptr %85, align 8
  %87 = icmp slt i32 %84, %86
  br i1 %87, label %89, label %88

88:                                               ; preds = %83
  store i32 5, ptr %11, align 4
  call void @llvm.lifetime.end.p0(i64 4, ptr %13) #9
  br label %110

89:                                               ; preds = %83
  %90 = getelementptr inbounds nuw %struct.SlruWriteAllData, ptr %6, i32 0, i32 1
  %91 = load i32, ptr %13, align 4
  %92 = sext i32 %91 to i64
  %93 = getelementptr inbounds [16 x i32], ptr %90, i64 0, i64 %92
  %94 = load i32, ptr %93, align 4
  %95 = call i32 @CloseTransientFile(i32 noundef %94)
  %96 = icmp ne i32 %95, 0
  br i1 %96, label %97, label %106

97:                                               ; preds = %89
  store i32 5, ptr @slru_errcause, align 4
  %98 = call ptr @__errno_location() #10
  %99 = load i32, ptr %98, align 4
  store i32 %99, ptr @slru_errno, align 4
  %100 = getelementptr inbounds nuw %struct.SlruWriteAllData, ptr %6, i32 0, i32 2
  %101 = load i32, ptr %13, align 4
  %102 = sext i32 %101 to i64
  %103 = getelementptr inbounds [16 x i64], ptr %100, i64 0, i64 %102
  %104 = load i64, ptr %103, align 8
  %105 = mul i64 %104, 32
  store i64 %105, ptr %7, align 8
  store i8 0, ptr %9, align 1
  br label %106

106:                                              ; preds = %97, %89
  br label %107

107:                                              ; preds = %106
  %108 = load i32, ptr %13, align 4
  %109 = add i32 %108, 1
  store i32 %109, ptr %13, align 4
  br label %83, !llvm.loop !18

110:                                              ; preds = %88
  %111 = load i8, ptr %9, align 1, !range !4, !noundef !5
  %112 = trunc i8 %111 to i1
  br i1 %112, label %116, label %113

113:                                              ; preds = %110
  %114 = load ptr, ptr %3, align 8
  %115 = load i64, ptr %7, align 8
  call void @SlruReportIOError(ptr noundef %114, i64 noundef %115, i32 noundef 0)
  br label %116

116:                                              ; preds = %113, %110
  %117 = load ptr, ptr %3, align 8
  %118 = getelementptr inbounds nuw %struct.SlruCtlData, ptr %117, i32 0, i32 3
  %119 = load i32, ptr %118, align 4
  %120 = icmp ne i32 %119, 5
  br i1 %120, label %121, label %125

121:                                              ; preds = %116
  %122 = load ptr, ptr %3, align 8
  %123 = getelementptr inbounds nuw %struct.SlruCtlData, ptr %122, i32 0, i32 5
  %124 = getelementptr inbounds [64 x i8], ptr %123, i64 0, i64 0
  call void @fsync_fname(ptr noundef %124, i1 noundef zeroext true)
  br label %125

125:                                              ; preds = %121, %116
  call void @llvm.lifetime.end.p0(i64 1, ptr %9) #9
  call void @llvm.lifetime.end.p0(i64 4, ptr %8) #9
  call void @llvm.lifetime.end.p0(i64 8, ptr %7) #9
  call void @llvm.lifetime.end.p0(i64 200, ptr %6) #9
  call void @llvm.lifetime.end.p0(i64 8, ptr %5) #9
  ret void

126:                                              ; preds = %70
  unreachable
}