; Function Attrs: nounwind uwtable
define dso_local void @SimpleLruWriteAll(ptr noundef %0, i1 noundef zeroext %1) local_unnamed_addr #3 {
  %3 = alloca %struct.SlruWriteAllData, align 8
  %4 = load ptr, ptr %0, align 8
  call void @llvm.lifetime.start.p0(i64 200, ptr nonnull %3) #15
  %5 = getelementptr inbounds nuw i8, ptr %4, i64 96
  %6 = load i32, ptr %5, align 8
  tail call void @pgstat_count_slru_flush(i32 noundef %6) #15
  store i32 0, ptr %3, align 8
  %7 = getelementptr inbounds nuw i8, ptr %4, i64 56
  %8 = load ptr, ptr %7, align 8
  %9 = tail call zeroext i1 @LWLockAcquire(ptr noundef %8, i32 noundef 0) #15
  %10 = load i32, ptr %4, align 8
  %11 = icmp sgt i32 %10, 0
  br i1 %11, label %.lr.ph, label %._crit_edge

.lr.ph:                                           ; preds = %2
  %12 = getelementptr inbounds nuw i8, ptr %4, i64 16
  br label %20

._crit_edge.loopexit:                             ; preds = %37
  %13 = sext i32 %.134 to i64
  br label %._crit_edge

._crit_edge:                                      ; preds = %._crit_edge.loopexit, %2
  %.033.lcssa = phi i64 [ 0, %2 ], [ %13, %._crit_edge.loopexit ]
  %14 = load ptr, ptr %7, align 8
  %15 = getelementptr inbounds %union.LWLockPadded, ptr %14, i64 %.033.lcssa
  call void @LWLockRelease(ptr noundef %15) #15
  %16 = load i32, ptr %3, align 8
  %17 = icmp sgt i32 %16, 0
  br i1 %17, label %.lr.ph44, label %._crit_edge45.thread

.lr.ph44:                                         ; preds = %._crit_edge
  %18 = getelementptr inbounds nuw i8, ptr %3, i64 4
  %19 = getelementptr inbounds nuw i8, ptr %3, i64 72
  br label %41

20:                                               ; preds = %.lr.ph, %37
  %indvars.iv = phi i64 [ 0, %.lr.ph ], [ %indvars.iv.next, %37 ]
  %.03338 = phi i32 [ 0, %.lr.ph ], [ %.134, %37 ]
  %21 = trunc nuw nsw i64 %indvars.iv to i32
  %22 = ashr i32 %21, 4
  %.not37 = icmp eq i32 %22, %.03338
  br i1 %.not37, label %31, label %23

23:                                               ; preds = %20
  %24 = load ptr, ptr %7, align 8
  %25 = sext i32 %.03338 to i64
  %26 = getelementptr inbounds %union.LWLockPadded, ptr %24, i64 %25
  call void @LWLockRelease(ptr noundef %26) #15
  %27 = load ptr, ptr %7, align 8
  %28 = sext i32 %22 to i64
  %29 = getelementptr inbounds %union.LWLockPadded, ptr %27, i64 %28
  %30 = call zeroext i1 @LWLockAcquire(ptr noundef %29, i32 noundef 0) #15
  br label %31

31:                                               ; preds = %23, %20
  %.134 = phi i32 [ %22, %23 ], [ %.03338, %20 ]
  %32 = load ptr, ptr %12, align 8
  %33 = getelementptr inbounds nuw i32, ptr %32, i64 %indvars.iv
  %34 = load i32, ptr %33, align 4
  %35 = icmp eq i32 %34, 0
  br i1 %35, label %37, label %36

36:                                               ; preds = %31
  call fastcc void @SlruInternalWritePage(ptr noundef nonnull %0, i32 noundef %21, ptr noundef nonnull %3)
  br label %37

37:                                               ; preds = %31, %36
  %indvars.iv.next = add nuw nsw i64 %indvars.iv, 1
  %38 = load i32, ptr %4, align 8
  %39 = sext i32 %38 to i64
  %40 = icmp slt i64 %indvars.iv.next, %39
  br i1 %40, label %20, label %._crit_edge.loopexit, !llvm.loop !16

._crit_edge45:                                    ; preds = %51
  br i1 %.132, label %._crit_edge45.thread, label %55

41:                                               ; preds = %.lr.ph44, %51
  %indvars.iv49 = phi i64 [ 0, %.lr.ph44 ], [ %indvars.iv.next50, %51 ]
  %.02941 = phi i64 [ 0, %.lr.ph44 ], [ %.1, %51 ]
  %.03140 = phi i1 [ true, %.lr.ph44 ], [ %.132, %51 ]
  %42 = getelementptr inbounds nuw [16 x i32], ptr %18, i64 0, i64 %indvars.iv49
  %43 = load i32, ptr %42, align 4
  %44 = call i32 @CloseTransientFile(i32 noundef %43) #15
  %.not36 = icmp eq i32 %44, 0
  br i1 %.not36, label %51, label %45

45:                                               ; preds = %41
  store i32 5, ptr @slru_errcause, align 4
  %46 = tail call ptr @__errno_location() #16
  %47 = load i32, ptr %46, align 4
  store i32 %47, ptr @slru_errno, align 4
  %48 = getelementptr inbounds nuw [16 x i64], ptr %19, i64 0, i64 %indvars.iv49
  %49 = load i64, ptr %48, align 8
  %50 = shl i64 %49, 5
  br label %51

51:                                               ; preds = %41, %45
  %.132 = phi i1 [ false, %45 ], [ %.03140, %41 ]
  %.1 = phi i64 [ %50, %45 ], [ %.02941, %41 ]
  %indvars.iv.next50 = add nuw nsw i64 %indvars.iv49, 1
  %52 = load i32, ptr %3, align 8
  %53 = sext i32 %52 to i64
  %54 = icmp slt i64 %indvars.iv.next50, %53
  br i1 %54, label %41, label %._crit_edge45, !llvm.loop !17

55:                                               ; preds = %._crit_edge45
  call fastcc void @SlruReportIOError(ptr noundef nonnull %0, i64 noundef %.1, i32 noundef 0)
  br label %._crit_edge45.thread

._crit_edge45.thread:                             ; preds = %._crit_edge, %55, %._crit_edge45
  %56 = getelementptr inbounds nuw i8, ptr %0, i64 12
  %57 = load i32, ptr %56, align 4
  %.not = icmp eq i32 %57, 5
  br i1 %.not, label %60, label %58

58:                                               ; preds = %._crit_edge45.thread
  %59 = getelementptr inbounds nuw i8, ptr %0, i64 24
  call void @fsync_fname(ptr noundef nonnull %59, i1 noundef zeroext true) #15
  br label %60

60:                                               ; preds = %58, %._crit_edge45.thread
  call void @llvm.lifetime.end.p0(i64 200, ptr nonnull %3) #15
  ret void
}